target datalayout = "e-m:e-p270:32:32-p271:32:32-p272:64:64-i64:64-i128:128-f80:128-n8:16:32:64-S128"
target triple = "x86_64-pc-linux-gnu"

%struct.prte_oob_base_t = type { i32, i32, i32, i32, i32, %struct.pmix_list_t, i32, %struct.pmix_list_t, i32, i32, i8, ptr, ptr, ptr, ptr, i8, ptr, ptr, ptr, ptr, %struct.pmix_list_t, ptr, i32, %struct.pmix_list_t, %struct.pmix_thread_t, i8, %struct.timeval, [2 x i32], i32, i32, i32, i32, i32 }
%struct.pmix_list_t = type { %struct.pmix_object_t, %struct.pmix_list_item_t, i64 }
%struct.pmix_object_t = type { %union.pthread_mutex_t, ptr, i32, %struct.pmix_tma }
%union.pthread_mutex_t = type { %struct.__pthread_mutex_s }
%struct.__pthread_mutex_s = type { i32, i32, i32, i32, i32, i16, i16, %struct.__pthread_internal_list }
%struct.__pthread_internal_list = type { ptr, ptr }
%struct.pmix_tma = type { ptr, ptr, ptr, ptr, ptr, ptr, ptr, ptr }
%struct.pmix_list_item_t = type { %struct.pmix_object_t, ptr, ptr, i32 }
%struct.pmix_thread_t = type { %struct.pmix_object_t, ptr, ptr, i64 }
%struct.timeval = type { i64, i64 }
%struct.prte_process_info_t = type { %struct.pmix_proc, %struct.pmix_proc, ptr, %struct.pmix_proc, i32, i32, i32, ptr, ptr, i32, i8, ptr, i16, ptr, ptr, i8, ptr, i8 }
%struct.pmix_proc = type { [256 x i8], i32 }
%struct.pmix_output_desc_t = type { i8, i8, i32, i8, i32, ptr, ptr, i32, ptr, i32, i8, i8, i8, i8, ptr, i32, i32 }
%struct.event = type { %struct.event_callback, %union.anon.0, i32, ptr, %union.anon.2, i16, i16, %struct.timeval }
%struct.event_callback = type { %struct.anon, i16, i8, i8, %union.anon, ptr }
%struct.anon = type { ptr, ptr }
%union.anon = type { ptr }
%union.anon.0 = type { %struct.anon.1 }
%struct.anon.1 = type { ptr, ptr }
%union.anon.2 = type { %struct.anon.3 }
%struct.anon.3 = type { %struct.anon.4, %struct.timeval }
%struct.anon.4 = type { ptr, ptr }
%struct.prte_oob_tcp_peer_t = type { %struct.pmix_list_item_t, %struct.pmix_proc, ptr, i32, %struct.pmix_list_t, ptr, i32, i32, %struct.event, i8, %struct.event, i8, %struct.event, i8, %struct.pmix_list_t, ptr, ptr }

@prte_oob_base = external global %struct.prte_oob_base_t, align 8
@prte_process_info = external global %struct.prte_process_info_t, align 8
@pmix_output_info = external global [0 x %struct.pmix_output_desc_t], align 8
@prte_event_base = external global ptr, align 8
@.str.50 = private unnamed_addr constant [63 x i8] c"%s tcp:peer_accept called for peer %s in state %s on socket %d\00", align 1
@.str.51 = private unnamed_addr constant [57 x i8] c"%s-%s tcp_peer_accept: tcp_peer_send_connect_ack failed\0A\00", align 1
@.str.52 = private unnamed_addr constant [9 x i8] c"accepted\00", align 1
@.str.53 = private unnamed_addr constant [64 x i8] c"%s tcp:peer_accept ignored for peer %s in state %s on socket %d\00", align 1

; Function Attrs: inlinehint nounwind uwtable
define internal void @pmix_atomic_wmb() #2 {
  fence release
  ret void
}

; Function Attrs: nounwind uwtable
define internal void @tcp_peer_event_init(ptr noundef %0) #0 {
  %2 = alloca ptr, align 8
  store ptr %0, ptr %2, align 8, !tbaa !9
  %3 = load ptr, ptr %2, align 8, !tbaa !9
  %4 = getelementptr inbounds nuw %struct.prte_oob_tcp_peer_t, ptr %3, i32 0, i32 3
  %5 = load i32, ptr %4, align 8, !tbaa !68
  %6 = icmp sge i32 %5, 0
  br i1 %6, label %7, label %46

7:                                                ; preds = %1
  %8 = load ptr, ptr %2, align 8, !tbaa !9
  %9 = getelementptr inbounds nuw %struct.prte_oob_tcp_peer_t, ptr %8, i32 0, i32 10
  %10 = load ptr, ptr @prte_event_base, align 8, !tbaa !97
  %11 = load ptr, ptr %2, align 8, !tbaa !9
  %12 = getelementptr inbounds nuw %struct.prte_oob_tcp_peer_t, ptr %11, i32 0, i32 3
  %13 = load i32, ptr %12, align 8, !tbaa !68
  %14 = load ptr, ptr %2, align 8, !tbaa !9
  %15 = call i32 @prte_event_assign(ptr noundef %9, ptr noundef %10, i32 noundef %13, i16 noundef signext 18, ptr noundef @prte_oob_tcp_recv_handler, ptr noundef %14)
  %16 = load ptr, ptr %2, align 8, !tbaa !9
  %17 = getelementptr inbounds nuw %struct.prte_oob_tcp_peer_t, ptr %16, i32 0, i32 11
  %18 = load i8, ptr %17, align 8, !tbaa !104, !range !69, !noundef !70
  %19 = trunc i8 %18 to i1
  br i1 %19, label %20, label %26

20:                                               ; preds = %7
  %21 = load ptr, ptr %2, align 8, !tbaa !9
  %22 = getelementptr inbounds nuw %struct.prte_oob_tcp_peer_t, ptr %21, i32 0, i32 10
  %23 = call i32 @event_del(ptr noundef %22)
  %24 = load ptr, ptr %2, align 8, !tbaa !9
  %25 = getelementptr inbounds nuw %struct.prte_oob_tcp_peer_t, ptr %24, i32 0, i32 11
  store i8 0, ptr %25, align 8, !tbaa !104
  br label %26

26:                                               ; preds = %20, %7
  %27 = load ptr, ptr %2, align 8, !tbaa !9
  %28 = getelementptr inbounds nuw %struct.prte_oob_tcp_peer_t, ptr %27, i32 0, i32 8
  %29 = load ptr, ptr @prte_event_base, align 8, !tbaa !97
  %30 = load ptr, ptr %2, align 8, !tbaa !9
  %31 = getelementptr inbounds nuw %struct.prte_oob_tcp_peer_t, ptr %30, i32 0, i32 3
  %32 = load i32, ptr %31, align 8, !tbaa !68
  %33 = load ptr, ptr %2, align 8, !tbaa !9
  %34 = call i32 @prte_event_assign(ptr noundef %28, ptr noundef %29, i32 noundef %32, i16 noundef signext 20, ptr noundef @prte_oob_tcp_send_handler, ptr noundef %33)
  %35 = load ptr, ptr %2, align 8, !tbaa !9
  %36 = getelementptr inbounds nuw %struct.prte_oob_tcp_peer_t, ptr %35, i32 0, i32 9
  %37 = load i8, ptr %36, align 8, !tbaa !89, !range !69, !noundef !70
  %38 = trunc i8 %37 to i1
  br i1 %38, label %39, label %45

39:                                               ; preds = %26
  %40 = load ptr, ptr %2, align 8, !tbaa !9
  %41 = getelementptr inbounds nuw %struct.prte_oob_tcp_peer_t, ptr %40, i32 0, i32 8
  %42 = call i32 @event_del(ptr noundef %41)
  %43 = load ptr, ptr %2, align 8, !tbaa !9
  %44 = getelementptr inbounds nuw %struct.prte_oob_tcp_peer_t, ptr %43, i32 0, i32 9
  store i8 0, ptr %44, align 8, !tbaa !89
  br label %45

45:                                               ; preds = %39, %26
  br label %46

46:                                               ; preds = %45, %1
  ret void
}

; Function Attrs: nounwind uwtable
define zeroext i1 @prte_oob_tcp_peer_accept(ptr noundef %0) #0 {
  %2 = alloca i1, align 1
  %3 = alloca ptr, align 8
  store ptr %0, ptr %3, align 8, !tbaa !9
  %4 = load i32, ptr @prte_oob_base, align 8, !tbaa !64
  %5 = icmp sge i32 %4, 0
  br i1 %5, label %6, label %29

6:                                                ; preds = %1
  %7 = load i32, ptr @prte_oob_base, align 8, !tbaa !64
  %8 = icmp slt i32 %7, 64
  br i1 %8, label %9, label %29

9:                                                ; preds = %6
  %10 = load i32, ptr @prte_oob_base, align 8, !tbaa !64
  %11 = sext i32 %10 to i64
  %12 = getelementptr inbounds [0 x %struct.pmix_output_desc_t], ptr @pmix_output_info, i64 0, i64 %11
  %13 = getelementptr inbounds nuw %struct.pmix_output_desc_t, ptr %12, i32 0, i32 2
  %14 = load i32, ptr %13, align 4, !tbaa !34
  %15 = icmp sge i32 %14, 7
  br i1 %15, label %16, label %29

16:                                               ; preds = %9
  %17 = load i32, ptr @prte_oob_base, align 8, !tbaa !64
  %18 = call ptr @prte_util_print_name_args(ptr noundef @prte_process_info)
  %19 = load ptr, ptr %3, align 8, !tbaa !9
  %20 = getelementptr inbounds nuw %struct.prte_oob_tcp_peer_t, ptr %19, i32 0, i32 1
  %21 = call ptr @prte_util_print_name_args(ptr noundef %20)
  %22 = load ptr, ptr %3, align 8, !tbaa !9
  %23 = getelementptr inbounds nuw %struct.prte_oob_tcp_peer_t, ptr %22, i32 0, i32 6
  %24 = load i32, ptr %23, align 8, !tbaa !98
  %25 = call ptr @prte_oob_tcp_state_print(i32 noundef %24)
  %26 = load ptr, ptr %3, align 8, !tbaa !9
  %27 = getelementptr inbounds nuw %struct.prte_oob_tcp_peer_t, ptr %26, i32 0, i32 3
  %28 = load i32, ptr %27, align 8, !tbaa !68
  call void (i32, ptr, ...) @pmix_output(i32 noundef %17, ptr noundef @.str.50, ptr noundef %18, ptr noundef %21, ptr noundef %25, i32 noundef %28)
  br label %29

29:                                               ; preds = %16, %9, %6, %1
  %30 = load ptr, ptr %3, align 8, !tbaa !9
  %31 = getelementptr inbounds nuw %struct.prte_oob_tcp_peer_t, ptr %30, i32 0, i32 6
  %32 = load i32, ptr %31, align 8, !tbaa !98
  %33 = icmp ne i32 %32, 5
  br i1 %33, label %34, label %66

34:                                               ; preds = %29
  %35 = load ptr, ptr %3, align 8, !tbaa !9
  call void @tcp_peer_event_init(ptr noundef %35)
  %36 = load ptr, ptr %3, align 8, !tbaa !9
  %37 = call i32 @tcp_peer_send_connect_ack(ptr noundef %36)
  %38 = icmp ne i32 %37, 0
  br i1 %38, label %39, label %47

39:                                               ; preds = %34
  %40 = call ptr @prte_util_print_name_args(ptr noundef @prte_process_info)
  %41 = load ptr, ptr %3, align 8, !tbaa !9
  %42 = getelementptr inbounds nuw %struct.prte_oob_tcp_peer_t, ptr %41, i32 0, i32 1
  %43 = call ptr @prte_util_print_name_args(ptr noundef %42)
  call void (i32, ptr, ...) @pmix_output(i32 noundef 0, ptr noundef @.str.51, ptr noundef %40, ptr noundef %43)
  %44 = load ptr, ptr %3, align 8, !tbaa !9
  %45 = getelementptr inbounds nuw %struct.prte_oob_tcp_peer_t, ptr %44, i32 0, i32 6
  store i32 6, ptr %45, align 8, !tbaa !98
  %46 = load ptr, ptr %3, align 8, !tbaa !9
  call void @prte_oob_tcp_peer_close(ptr noundef %46)
  store i1 false, ptr %2, align 1
  br label %93

47:                                               ; preds = %34
  %48 = load ptr, ptr %3, align 8, !tbaa !9
  call void @tcp_peer_connected(ptr noundef %48)
  %49 = load ptr, ptr %3, align 8, !tbaa !9
  %50 = getelementptr inbounds nuw %struct.prte_oob_tcp_peer_t, ptr %49, i32 0, i32 11
  %51 = load i8, ptr %50, align 8, !tbaa !104, !range !69, !noundef !70
  %52 = trunc i8 %51 to i1
  br i1 %52, label %59, label %53

53:                                               ; preds = %47
  %54 = load ptr, ptr %3, align 8, !tbaa !9
  %55 = getelementptr inbounds nuw %struct.prte_oob_tcp_peer_t, ptr %54, i32 0, i32 11
  store i8 1, ptr %55, align 8, !tbaa !104
  call void @pmix_atomic_wmb()
  %56 = load ptr, ptr %3, align 8, !tbaa !9
  %57 = getelementptr inbounds nuw %struct.prte_oob_tcp_peer_t, ptr %56, i32 0, i32 10
  %58 = call i32 @event_add(ptr noundef %57, ptr noundef null)
  br label %59

59:                                               ; preds = %53, %47
  %60 = load i32, ptr @prte_oob_base, align 8, !tbaa !64
  %61 = call i32 @pmix_output_get_verbosity(i32 noundef %60)
  %62 = icmp sle i32 7, %61
  br i1 %62, label %63, label %65

63:                                               ; preds = %59
  %64 = load ptr, ptr %3, align 8, !tbaa !9
  call void @prte_oob_tcp_peer_dump(ptr noundef %64, ptr noundef @.str.52)
  br label %65

65:                                               ; preds = %63, %59
  store i1 true, ptr %2, align 1
  br label %93

66:                                               ; preds = %29
  %67 = load i32, ptr @prte_oob_base, align 8, !tbaa !64
  %68 = icmp sge i32 %67, 0
  br i1 %68, label %69, label %92

69:                                               ; preds = %66
  %70 = load i32, ptr @prte_oob_base, align 8, !tbaa !64
  %71 = icmp slt i32 %70, 64
  br i1 %71, label %72, label %92

72:                                               ; preds = %69
  %73 = load i32, ptr @prte_oob_base, align 8, !tbaa !64
  %74 = sext i32 %73 to i64
  %75 = getelementptr inbounds [0 x %struct.pmix_output_desc_t], ptr @pmix_output_info, i64 0, i64 %74
  %76 = getelementptr inbounds nuw %struct.pmix_output_desc_t, ptr %75, i32 0, i32 2
  %77 = load i32, ptr %76, align 4, !tbaa !34
  %78 = icmp sge i32 %77, 7
  br i1 %78, label %79, label %92

79:                                               ; preds = %72
  %80 = load i32, ptr @prte_oob_base, align 8, !tbaa !64
  %81 = call ptr @prte_util_print_name_args(ptr noundef @prte_process_info)
  %82 = load ptr, ptr %3, align 8, !tbaa !9
  %83 = getelementptr inbounds nuw %struct.prte_oob_tcp_peer_t, ptr %82, i32 0, i32 1
  %84 = call ptr @prte_util_print_name_args(ptr noundef %83)
  %85 = load ptr, ptr %3, align 8, !tbaa !9
  %86 = getelementptr inbounds nuw %struct.prte_oob_tcp_peer_t, ptr %85, i32 0, i32 6
  %87 = load i32, ptr %86, align 8, !tbaa !98
  %88 = call ptr @prte_oob_tcp_state_print(i32 noundef %87)
  %89 = load ptr, ptr %3, align 8, !tbaa !9
  %90 = getelementptr inbounds nuw %struct.prte_oob_tcp_peer_t, ptr %89, i32 0, i32 3
  %91 = load i32, ptr %90, align 8, !tbaa !68
  call void (i32, ptr, ...) @pmix_output(i32 noundef %80, ptr noundef @.str.53, ptr noundef %81, ptr noundef %84, ptr noundef %88, i32 noundef %91)
  br label %92

92:                                               ; preds = %79, %72, %69, %66
  store i1 false, ptr %2, align 1
  br label %93

93:                                               ; preds = %92, %65, %39
  %94 = load i1, ptr %2, align 1
  ret i1 %94
}