; Function Attrs: nounwind uwtable
define noundef zeroext i1 @prte_oob_tcp_peer_accept(ptr noundef %0) local_unnamed_addr #0 {
  %2 = load i32, ptr @prte_oob_base, align 8, !tbaa !60
  %or.cond = icmp ult i32 %2, 64
  br i1 %or.cond, label %3, label %17

3:                                                ; preds = %1
  %4 = zext nneg i32 %2 to i64
  %5 = getelementptr inbounds nuw [0 x %struct.pmix_output_desc_t], ptr @pmix_output_info, i64 0, i64 %4, i32 2
  %6 = load i32, ptr %5, align 4, !tbaa !32
  %7 = icmp sgt i32 %6, 6
  br i1 %7, label %8, label %17

8:                                                ; preds = %3
  %9 = tail call ptr @prte_util_print_name_args(ptr noundef nonnull @prte_process_info) #15
  %10 = getelementptr inbounds nuw i8, ptr %0, i64 144
  %11 = tail call ptr @prte_util_print_name_args(ptr noundef nonnull %10) #15
  %12 = getelementptr inbounds nuw i8, ptr %0, i64 704
  %13 = load i32, ptr %12, align 8, !tbaa !95
  %14 = tail call ptr @prte_oob_tcp_state_print(i32 noundef %13) #15
  %15 = getelementptr inbounds nuw i8, ptr %0, i64 416
  %16 = load i32, ptr %15, align 8, !tbaa !64
  tail call void (i32, ptr, ...) @pmix_output(i32 noundef %2, ptr noundef nonnull @.str.50, ptr noundef %9, ptr noundef %11, ptr noundef %14, i32 noundef %16) #15
  br label %17

17:                                               ; preds = %8, %3, %1
  %18 = getelementptr inbounds nuw i8, ptr %0, i64 704
  %19 = load i32, ptr %18, align 8, !tbaa !95
  %.not = icmp eq i32 %19, 5
  br i1 %.not, label %60, label %20

20:                                               ; preds = %17
  %21 = getelementptr inbounds nuw i8, ptr %0, i64 416
  %22 = load i32, ptr %21, align 8, !tbaa !64
  %23 = icmp sgt i32 %22, -1
  br i1 %23, label %24, label %tcp_peer_event_init.exit

24:                                               ; preds = %20
  %25 = getelementptr inbounds nuw i8, ptr %0, i64 848
  %26 = load ptr, ptr @prte_event_base, align 8, !tbaa !83
  %27 = tail call i32 @prte_event_assign(ptr noundef nonnull %25, ptr noundef %26, i32 noundef %22, i16 noundef signext 18, ptr noundef nonnull @prte_oob_tcp_recv_handler, ptr noundef nonnull %0) #15
  %28 = getelementptr inbounds nuw i8, ptr %0, i64 976
  %29 = load i8, ptr %28, align 8, !tbaa !84, !range !85, !noundef !86
  %30 = trunc nuw i8 %29 to i1
  br i1 %30, label %31, label %33

31:                                               ; preds = %24
  %32 = tail call i32 @event_del(ptr noundef nonnull %25) #15
  store i8 0, ptr %28, align 8, !tbaa !84
  br label %33

33:                                               ; preds = %31, %24
  %34 = getelementptr inbounds nuw i8, ptr %0, i64 712
  %35 = load ptr, ptr @prte_event_base, align 8, !tbaa !83
  %36 = load i32, ptr %21, align 8, !tbaa !64
  %37 = tail call i32 @prte_event_assign(ptr noundef nonnull %34, ptr noundef %35, i32 noundef %36, i16 noundef signext 20, ptr noundef nonnull @prte_oob_tcp_send_handler, ptr noundef nonnull %0) #15
  %38 = getelementptr inbounds nuw i8, ptr %0, i64 840
  %39 = load i8, ptr %38, align 8, !tbaa !87, !range !85, !noundef !86
  %40 = trunc nuw i8 %39 to i1
  br i1 %40, label %41, label %tcp_peer_event_init.exit

41:                                               ; preds = %33
  %42 = tail call i32 @event_del(ptr noundef nonnull %34) #15
  store i8 0, ptr %38, align 8, !tbaa !87
  br label %tcp_peer_event_init.exit

tcp_peer_event_init.exit:                         ; preds = %20, %33, %41
  %43 = tail call fastcc i32 @tcp_peer_send_connect_ack(ptr noundef nonnull %0)
  %.not23 = icmp eq i32 %43, 0
  br i1 %.not23, label %48, label %44

44:                                               ; preds = %tcp_peer_event_init.exit
  %45 = tail call ptr @prte_util_print_name_args(ptr noundef nonnull @prte_process_info) #15
  %46 = getelementptr inbounds nuw i8, ptr %0, i64 144
  %47 = tail call ptr @prte_util_print_name_args(ptr noundef nonnull %46) #15
  tail call void (i32, ptr, ...) @pmix_output(i32 noundef 0, ptr noundef nonnull @.str.51, ptr noundef %45, ptr noundef %47) #15
  store i32 6, ptr %18, align 8, !tbaa !95
  tail call void @prte_oob_tcp_peer_close(ptr noundef nonnull %0)
  br label %75

48:                                               ; preds = %tcp_peer_event_init.exit
  tail call fastcc void @tcp_peer_connected(ptr noundef nonnull %0)
  %49 = getelementptr inbounds nuw i8, ptr %0, i64 976
  %50 = load i8, ptr %49, align 8, !tbaa !84, !range !85, !noundef !86
  %51 = trunc nuw i8 %50 to i1
  br i1 %51, label %55, label %52

52:                                               ; preds = %48
  store i8 1, ptr %49, align 8, !tbaa !84
  fence release
  %53 = getelementptr inbounds nuw i8, ptr %0, i64 848
  %54 = tail call i32 @event_add(ptr noundef nonnull %53, ptr noundef null) #15
  br label %55

55:                                               ; preds = %52, %48
  %56 = load i32, ptr @prte_oob_base, align 8, !tbaa !60
  %57 = tail call i32 @pmix_output_get_verbosity(i32 noundef %56) #15
  %58 = icmp sgt i32 %57, 6
  br i1 %58, label %59, label %75

59:                                               ; preds = %55
  tail call void @prte_oob_tcp_peer_dump(ptr noundef nonnull %0, ptr noundef nonnull @.str.52)
  br label %75

60:                                               ; preds = %17
  %61 = load i32, ptr @prte_oob_base, align 8, !tbaa !60
  %or.cond3 = icmp ult i32 %61, 64
  br i1 %or.cond3, label %62, label %75

62:                                               ; preds = %60
  %63 = zext nneg i32 %61 to i64
  %64 = getelementptr inbounds nuw [0 x %struct.pmix_output_desc_t], ptr @pmix_output_info, i64 0, i64 %63, i32 2
  %65 = load i32, ptr %64, align 4, !tbaa !32
  %66 = icmp sgt i32 %65, 6
  br i1 %66, label %67, label %75

67:                                               ; preds = %62
  %68 = tail call ptr @prte_util_print_name_args(ptr noundef nonnull @prte_process_info) #15
  %69 = getelementptr inbounds nuw i8, ptr %0, i64 144
  %70 = tail call ptr @prte_util_print_name_args(ptr noundef nonnull %69) #15
  %71 = load i32, ptr %18, align 8, !tbaa !95
  %72 = tail call ptr @prte_oob_tcp_state_print(i32 noundef %71) #15
  %73 = getelementptr inbounds nuw i8, ptr %0, i64 416
  %74 = load i32, ptr %73, align 8, !tbaa !64
  tail call void (i32, ptr, ...) @pmix_output(i32 noundef %61, ptr noundef nonnull @.str.53, ptr noundef %68, ptr noundef %70, ptr noundef %72, i32 noundef %74) #15
  br label %75

75:                                               ; preds = %60, %62, %67, %55, %59, %44
  %.0 = phi i1 [ false, %44 ], [ true, %59 ], [ true, %55 ], [ false, %67 ], [ false, %62 ], [ false, %60 ]
  ret i1 %.0
}